(lp0
(S'cppflags'
p1
ccopy_reg
_reconstructor
p2
(cino.utils
SpaceList
p3
c__builtin__
list
p4
(lp5
S'-mmcu=atmega8'
p6
aS'-DF_CPU=8000000L'
p7
aS'-DARDUINO=105'
p8
aS'-I/usr/share/arduino/hardware/arduino/cores/arduino'
p9
aS'-ffunction-sections'
p10
aS'-fdata-sections'
p11
aS'-g'
p12
aS'-Os'
p13
aS'-w'
p14
aS'-fno-use-cxa-atexit'
p15
aS'-I/usr/share/arduino/hardware/arduino/variants/standard'
p16
atp17
Rp18
tp19
a(S'cxx'
p20
S'/usr/bin/avr-g++'
p21
tp22
a(S'build_dir'
p23
S'.build/atmega8'
p24
tp25
a(S'avrdude'
p26
S'/usr/bin/avrdude'
p27
tp28
a(S'ar'
p29
S'/usr/bin/avr-ar'
p30
tp31
a(S'names'
p32
(dp33
S'cpp'
p34
S'%s.cpp'
p35
sS'obj'
p36
S'%s.o'
p37
sS'deps'
p38
S'%s.d'
p39
sS'lib'
p40
S'lib%s.a'
p41
stp42
a(S'ldflags'
p43
g2
(g3
g4
(lp44
g6
aS'-Wl,-Os'
p45
aS'-Wl,--gc-sections'
p46
atp47
Rp48
tp49
a(S'arduino_lib_version'
p50
g2
(cino.environment
Version
p51
c__builtin__
tuple
p52
(I1
I0
I5
tp53
tp54
Rp55
tp56
a(S'objcopy'
p57
S'/usr/bin/avr-objcopy'
p58
tp59
a(S'board_models'
p60
cino.environment
BoardModels
p61
((lp62
(lp63
S'uno'
p64
a(dp65
S'bootloader'
p66
(dp67
S'extended_fuses'
p68
S'0x05'
p69
sS'high_fuses'
p70
S'0xde'
p71
sS'low_fuses'
p72
S'0xff'
p73
sS'lock_bits'
p74
S'0x0F'
p75
sS'file'
p76
S'optiboot_atmega328.hex'
p77
sS'path'
p78
S'optiboot'
p79
sS'unlock_bits'
p80
S'0x3F'
p81
ssS'upload'
p82
(dp83
S'speed'
p84
S'115200'
p85
sS'maximum_size'
p86
S'32256'
p87
sS'protocol'
p88
S'arduino'
p89
ssS'name'
p90
S'Arduino Uno'
p91
sS'build'
p92
(dp93
S'core'
p94
S'arduino'
p95
sS'mcu'
p96
S'atmega328p'
p97
sS'cppoption1'
p98
S'-fno-use-cxa-atexit'
p99
sS'f_cpu'
p100
S'16000000L'
p101
sS'variant'
p102
S'standard'
p103
ssaa(lp104
S'atmega328'
p105
a(dp106
S'bootloader'
p107
(dp108
S'extended_fuses'
p109
S'0x05'
p110
sS'high_fuses'
p111
S'0xDA'
p112
sS'low_fuses'
p113
S'0xFF'
p114
sS'lock_bits'
p115
S'0x0F'
p116
sS'file'
p117
S'ATmegaBOOT_168_atmega328.hex'
p118
sS'path'
p119
S'atmega'
p120
sS'unlock_bits'
p121
S'0x3F'
p122
ssS'upload'
p123
(dp124
S'speed'
p125
S'57600'
p126
sS'maximum_size'
p127
S'30720'
p128
sS'protocol'
p129
S'arduino'
p130
ssS'name'
p131
S'Arduino Duemilanove w/ ATmega328'
p132
sS'build'
p133
(dp134
S'core'
p135
S'arduino'
p136
sS'mcu'
p137
S'atmega328p'
p138
sS'cppoption1'
p139
S'-fno-use-cxa-atexit'
p140
sS'f_cpu'
p141
S'16000000L'
p142
sS'variant'
p143
S'standard'
p144
ssaa(lp145
S'diecimila'
p146
a(dp147
S'bootloader'
p148
(dp149
S'extended_fuses'
p150
S'0x00'
p151
sS'high_fuses'
p152
S'0xdd'
p153
sS'low_fuses'
p154
S'0xff'
p155
sS'lock_bits'
p156
S'0x0F'
p157
sS'file'
p158
S'ATmegaBOOT_168_diecimila.hex'
p159
sS'path'
p160
S'atmega'
p161
sS'unlock_bits'
p162
S'0x3F'
p163
ssS'upload'
p164
(dp165
S'speed'
p166
S'19200'
p167
sS'maximum_size'
p168
S'14336'
p169
sS'protocol'
p170
S'arduino'
p171
ssS'name'
p172
S'Arduino Diecimila or Duemilanove w/ ATmega168'
p173
sS'build'
p174
(dp175
S'core'
p176
S'arduino'
p177
sS'mcu'
p178
S'atmega168'
p179
sS'cppoption1'
p180
S'-fno-use-cxa-atexit'
p181
sS'f_cpu'
p182
S'16000000L'
p183
sS'variant'
p184
S'standard'
p185
ssaa(lp186
S'nano328'
p187
a(dp188
S'bootloader'
p189
(dp190
S'extended_fuses'
p191
S'0x05'
p192
sS'high_fuses'
p193
S'0xDA'
p194
sS'low_fuses'
p195
S'0xFF'
p196
sS'lock_bits'
p197
S'0x0F'
p198
sS'file'
p199
S'ATmegaBOOT_168_atmega328.hex'
p200
sS'path'
p201
S'atmega'
p202
sS'unlock_bits'
p203
S'0x3F'
p204
ssS'upload'
p205
(dp206
S'speed'
p207
S'57600'
p208
sS'maximum_size'
p209
S'30720'
p210
sS'protocol'
p211
S'arduino'
p212
ssS'name'
p213
S'Arduino Nano w/ ATmega328'
p214
sS'build'
p215
(dp216
S'core'
p217
S'arduino'
p218
sS'mcu'
p219
S'atmega328p'
p220
sS'cppoption1'
p221
S'-fno-use-cxa-atexit'
p222
sS'f_cpu'
p223
S'16000000L'
p224
sS'variant'
p225
S'eightanaloginputs'
p226
ssaa(lp227
S'nano'
p228
a(dp229
S'bootloader'
p230
(dp231
S'extended_fuses'
p232
S'0x00'
p233
sS'high_fuses'
p234
S'0xdd'
p235
sS'low_fuses'
p236
S'0xff'
p237
sS'lock_bits'
p238
S'0x0F'
p239
sS'file'
p240
S'ATmegaBOOT_168_diecimila.hex'
p241
sS'path'
p242
S'atmega'
p243
sS'unlock_bits'
p244
S'0x3F'
p245
ssS'upload'
p246
(dp247
S'speed'
p248
S'19200'
p249
sS'maximum_size'
p250
S'14336'
p251
sS'protocol'
p252
S'arduino'
p253
ssS'name'
p254
S'Arduino Nano w/ ATmega168'
p255
sS'build'
p256
(dp257
S'core'
p258
S'arduino'
p259
sS'mcu'
p260
S'atmega168'
p261
sS'cppoption1'
p262
S'-fno-use-cxa-atexit'
p263
sS'f_cpu'
p264
S'16000000L'
p265
sS'variant'
p266
S'eightanaloginputs'
p267
ssaa(lp268
S'mega2560'
p269
a(dp270
S'bootloader'
p271
(dp272
S'extended_fuses'
p273
S'0xFD'
p274
sS'high_fuses'
p275
S'0xD8'
p276
sS'low_fuses'
p277
S'0xFF'
p278
sS'lock_bits'
p279
S'0x0F'
p280
sS'file'
p281
S'stk500boot_v2_mega2560.hex'
p282
sS'path'
p283
S'stk500v2'
p284
sS'unlock_bits'
p285
S'0x3F'
p286
ssS'upload'
p287
(dp288
S'speed'
p289
S'115200'
p290
sS'maximum_size'
p291
S'258048'
p292
sS'protocol'
p293
S'wiring'
p294
ssS'name'
p295
S'Arduino Mega 2560 or Mega ADK'
p296
sS'build'
p297
(dp298
S'core'
p299
S'arduino'
p300
sS'mcu'
p301
S'atmega2560'
p302
sS'cppoption1'
p303
S'-fno-use-cxa-atexit'
p304
sS'f_cpu'
p305
S'16000000L'
p306
sS'variant'
p307
S'mega'
p308
ssaa(lp309
S'mega'
p310
a(dp311
S'bootloader'
p312
(dp313
S'extended_fuses'
p314
S'0xF5'
p315
sS'high_fuses'
p316
S'0xDA'
p317
sS'low_fuses'
p318
S'0xFF'
p319
sS'lock_bits'
p320
S'0x0F'
p321
sS'file'
p322
S'ATmegaBOOT_168_atmega1280.hex'
p323
sS'path'
p324
S'atmega'
p325
sS'unlock_bits'
p326
S'0x3F'
p327
ssS'upload'
p328
(dp329
S'speed'
p330
S'57600'
p331
sS'maximum_size'
p332
S'126976'
p333
sS'protocol'
p334
S'arduino'
p335
ssS'name'
p336
S'Arduino Mega (ATmega1280)'
p337
sS'build'
p338
(dp339
S'core'
p340
S'arduino'
p341
sS'mcu'
p342
S'atmega1280'
p343
sS'cppoption1'
p344
S'-fno-use-cxa-atexit'
p345
sS'f_cpu'
p346
S'16000000L'
p347
sS'variant'
p348
S'mega'
p349
ssaa(lp350
S'leonardo'
p351
a(dp352
S'bootloader'
p353
(dp354
S'extended_fuses'
p355
S'0xcb'
p356
sS'high_fuses'
p357
S'0xd8'
p358
sS'low_fuses'
p359
S'0xff'
p360
sS'lock_bits'
p361
S'0x2F'
p362
sS'file'
p363
S'Caterina-Leonardo.hex'
p364
sS'path'
p365
S'caterina'
p366
sS'unlock_bits'
p367
S'0x3F'
p368
ssS'upload'
p369
(dp370
S'speed'
p371
S'57600'
p372
sS'maximum_size'
p373
S'28672'
p374
sS'protocol'
p375
S'avr109'
p376
sS'disable_flushing'
p377
S'true'
p378
ssS'name'
p379
S'Arduino Leonardo'
p380
sS'build'
p381
(dp382
S'core'
p383
S'arduino'
p384
sS'f_cpu'
p385
S'16000000L'
p386
sS'vid'
p387
S'0x2341'
p388
sS'pid'
p389
S'0x8036'
p390
sS'cppoption1'
p391
S'-fno-use-cxa-atexit'
p392
sS'variant'
p393
S'leonardo'
p394
sS'mcu'
p395
S'atmega32u4'
p396
ssaa(lp397
S'esplora'
p398
a(dp399
S'bootloader'
p400
(dp401
S'extended_fuses'
p402
S'0xcb'
p403
sS'high_fuses'
p404
S'0xd8'
p405
sS'low_fuses'
p406
S'0xff'
p407
sS'lock_bits'
p408
S'0x2F'
p409
sS'file'
p410
S'Caterina-Esplora.hex'
p411
sS'path'
p412
S'caterina'
p413
sS'unlock_bits'
p414
S'0x3F'
p415
ssS'upload'
p416
(dp417
S'speed'
p418
S'57600'
p419
sS'maximum_size'
p420
S'28672'
p421
sS'protocol'
p422
S'avr109'
p423
sS'disable_flushing'
p424
S'true'
p425
ssS'name'
p426
S'Arduino Esplora'
p427
sS'build'
p428
(dp429
S'core'
p430
S'arduino'
p431
sS'f_cpu'
p432
S'16000000L'
p433
sS'vid'
p434
S'0x2341'
p435
sS'pid'
p436
S'0x803C'
p437
sS'cppoption1'
p438
S'-fno-use-cxa-atexit'
p439
sS'variant'
p440
S'leonardo'
p441
sS'mcu'
p442
S'atmega32u4'
p443
ssaa(lp444
S'micro'
p445
a(dp446
S'bootloader'
p447
(dp448
S'extended_fuses'
p449
S'0xcb'
p450
sS'high_fuses'
p451
S'0xd8'
p452
sS'low_fuses'
p453
S'0xff'
p454
sS'lock_bits'
p455
S'0x2F'
p456
sS'file'
p457
S'Caterina-Micro.hex'
p458
sS'path'
p459
S'caterina'
p460
sS'unlock_bits'
p461
S'0x3F'
p462
ssS'upload'
p463
(dp464
S'speed'
p465
S'57600'
p466
sS'maximum_size'
p467
S'28672'
p468
sS'protocol'
p469
S'avr109'
p470
sS'disable_flushing'
p471
S'true'
p472
ssS'name'
p473
S'Arduino Micro'
p474
sS'build'
p475
(dp476
S'core'
p477
S'arduino'
p478
sS'f_cpu'
p479
S'16000000L'
p480
sS'vid'
p481
S'0x2341'
p482
sS'pid'
p483
S'0x8037'
p484
sS'cppoption1'
p485
S'-fno-use-cxa-atexit'
p486
sS'variant'
p487
S'micro'
p488
sS'mcu'
p489
S'atmega32u4'
p490
ssaa(lp491
S'mini328'
p492
a(dp493
S'bootloader'
p494
(dp495
S'extended_fuses'
p496
S'0x05'
p497
sS'high_fuses'
p498
S'0xd8'
p499
sS'low_fuses'
p500
S'0xff'
p501
sS'lock_bits'
p502
S'0x0F'
p503
sS'file'
p504
S'optiboot_atmega328-Mini.hex'
p505
sS'path'
p506
S'optiboot'
p507
sS'unlock_bits'
p508
S'0x3F'
p509
ssS'upload'
p510
(dp511
S'speed'
p512
S'115200'
p513
sS'maximum_size'
p514
S'28672'
p515
sS'protocol'
p516
S'arduino'
p517
ssS'name'
p518
S'Arduino Mini w/ ATmega328'
p519
sS'build'
p520
(dp521
S'core'
p522
S'arduino'
p523
sS'mcu'
p524
S'atmega328p'
p525
sS'cppoption1'
p526
S'-fno-use-cxa-atexit'
p527
sS'f_cpu'
p528
S'16000000L'
p529
sS'variant'
p530
S'eightanaloginputs'
p531
ssaa(lp532
S'mini'
p533
a(dp534
S'bootloader'
p535
(dp536
S'extended_fuses'
p537
S'0x00'
p538
sS'high_fuses'
p539
S'0xdd'
p540
sS'low_fuses'
p541
S'0xff'
p542
sS'lock_bits'
p543
S'0x0F'
p544
sS'file'
p545
S'ATmegaBOOT_168_ng.hex'
p546
sS'path'
p547
S'atmega'
p548
sS'unlock_bits'
p549
S'0x3F'
p550
ssS'upload'
p551
(dp552
S'speed'
p553
S'19200'
p554
sS'maximum_size'
p555
S'14336'
p556
sS'protocol'
p557
S'arduino'
p558
ssS'name'
p559
S'Arduino Mini w/ ATmega168'
p560
sS'build'
p561
(dp562
S'core'
p563
S'arduino'
p564
sS'mcu'
p565
S'atmega168'
p566
sS'cppoption1'
p567
S'-fno-use-cxa-atexit'
p568
sS'f_cpu'
p569
S'16000000L'
p570
sS'variant'
p571
S'eightanaloginputs'
p572
ssaa(lp573
S'ethernet'
p574
a(dp575
S'bootloader'
p576
(dp577
S'extended_fuses'
p578
S'0x05'
p579
sS'high_fuses'
p580
S'0xde'
p581
sS'low_fuses'
p582
S'0xff'
p583
sS'lock_bits'
p584
S'0x0F'
p585
sS'file'
p586
S'optiboot_atmega328.hex'
p587
sS'path'
p588
S'optiboot'
p589
sS'unlock_bits'
p590
S'0x3F'
p591
ssS'upload'
p592
(dp593
S'speed'
p594
S'115200'
p595
sS'maximum_size'
p596
S'32256'
p597
sS'protocol'
p598
S'arduino'
p599
ssS'name'
p600
S'Arduino Ethernet'
p601
sS'build'
p602
(dp603
S'f_cpu'
p604
S'16000000L'
p605
sS'mcu'
p606
S'atmega328p'
p607
sS'cppoption1'
p608
S'-fno-use-cxa-atexit'
p609
sS'variant'
p610
S'standard'
p611
sS'core'
p612
S'arduino'
p613
ssaa(lp614
S'fio'
p615
a(dp616
S'bootloader'
p617
(dp618
S'extended_fuses'
p619
S'0x05'
p620
sS'high_fuses'
p621
S'0xDA'
p622
sS'low_fuses'
p623
S'0xFF'
p624
sS'lock_bits'
p625
S'0x0F'
p626
sS'file'
p627
S'ATmegaBOOT_168_atmega328_pro_8MHz.hex'
p628
sS'path'
p629
S'arduino:atmega'
p630
sS'unlock_bits'
p631
S'0x3F'
p632
ssS'upload'
p633
(dp634
S'speed'
p635
S'57600'
p636
sS'maximum_size'
p637
S'30720'
p638
sS'protocol'
p639
S'arduino'
p640
ssS'name'
p641
S'Arduino Fio'
p642
sS'build'
p643
(dp644
S'core'
p645
S'arduino'
p646
sS'mcu'
p647
S'atmega328p'
p648
sS'cppoption1'
p649
S'-fno-use-cxa-atexit'
p650
sS'f_cpu'
p651
S'8000000L'
p652
sS'variant'
p653
S'eightanaloginputs'
p654
ssaa(lp655
S'bt328'
p656
a(dp657
S'bootloader'
p658
(dp659
S'extended_fuses'
p660
S'0x05'
p661
sS'high_fuses'
p662
S'0xd8'
p663
sS'low_fuses'
p664
S'0xff'
p665
sS'lock_bits'
p666
S'0x0F'
p667
sS'file'
p668
S'ATmegaBOOT_168_atmega328_bt.hex'
p669
sS'path'
p670
S'bt'
p671
sS'unlock_bits'
p672
S'0x3F'
p673
ssS'upload'
p674
(dp675
S'speed'
p676
S'19200'
p677
sS'maximum_size'
p678
S'28672'
p679
sS'protocol'
p680
S'arduino'
p681
sS'disable_flushing'
p682
S'true'
p683
ssS'name'
p684
S'Arduino BT w/ ATmega328'
p685
sS'build'
p686
(dp687
S'core'
p688
S'arduino'
p689
sS'mcu'
p690
S'atmega328p'
p691
sS'cppoption1'
p692
S'-fno-use-cxa-atexit'
p693
sS'f_cpu'
p694
S'16000000L'
p695
sS'variant'
p696
S'eightanaloginputs'
p697
ssaa(lp698
S'bt'
p699
a(dp700
S'bootloader'
p701
(dp702
S'extended_fuses'
p703
S'0x00'
p704
sS'high_fuses'
p705
S'0xdd'
p706
sS'low_fuses'
p707
S'0xff'
p708
sS'lock_bits'
p709
S'0x0F'
p710
sS'file'
p711
S'ATmegaBOOT_168.hex'
p712
sS'path'
p713
S'bt'
p714
sS'unlock_bits'
p715
S'0x3F'
p716
ssS'upload'
p717
(dp718
S'speed'
p719
S'19200'
p720
sS'maximum_size'
p721
S'14336'
p722
sS'protocol'
p723
S'arduino'
p724
sS'disable_flushing'
p725
S'true'
p726
ssS'name'
p727
S'Arduino BT w/ ATmega168'
p728
sS'build'
p729
(dp730
S'core'
p731
S'arduino'
p732
sS'mcu'
p733
S'atmega168'
p734
sS'cppoption1'
p735
S'-fno-use-cxa-atexit'
p736
sS'f_cpu'
p737
S'16000000L'
p738
sS'variant'
p739
S'eightanaloginputs'
p740
ssaa(lp741
S'LilyPadUSB'
p742
a(dp743
S'bootloader'
p744
(dp745
S'extended_fuses'
p746
S'0xce'
p747
sS'high_fuses'
p748
S'0xd8'
p749
sS'low_fuses'
p750
S'0xff'
p751
sS'lock_bits'
p752
S'0x2F'
p753
sS'file'
p754
S'Caterina-LilyPadUSB.hex'
p755
sS'path'
p756
S'caterina-LilyPadUSB'
p757
sS'unlock_bits'
p758
S'0x3F'
p759
ssS'upload'
p760
(dp761
S'speed'
p762
S'57600'
p763
sS'maximum_size'
p764
S'28672'
p765
sS'protocol'
p766
S'avr109'
p767
sS'disable_flushing'
p768
S'true'
p769
ssS'name'
p770
S'LilyPad Arduino USB'
p771
sS'build'
p772
(dp773
S'core'
p774
S'arduino'
p775
sS'f_cpu'
p776
S'8000000L'
p777
sS'vid'
p778
S'0x1B4F'
p779
sS'pid'
p780
S'0x9208'
p781
sS'cppoption1'
p782
S'-fno-use-cxa-atexit'
p783
sS'variant'
p784
S'leonardo'
p785
sS'mcu'
p786
S'atmega32u4'
p787
ssaa(lp788
S'lilypad328'
p789
a(dp790
S'bootloader'
p791
(dp792
S'extended_fuses'
p793
S'0x05'
p794
sS'high_fuses'
p795
S'0xDA'
p796
sS'low_fuses'
p797
S'0xFF'
p798
sS'lock_bits'
p799
S'0x0F'
p800
sS'file'
p801
S'ATmegaBOOT_168_atmega328_pro_8MHz.hex'
p802
sS'path'
p803
S'atmega'
p804
sS'unlock_bits'
p805
S'0x3F'
p806
ssS'upload'
p807
(dp808
S'speed'
p809
S'57600'
p810
sS'maximum_size'
p811
S'30720'
p812
sS'protocol'
p813
S'arduino'
p814
ssS'name'
p815
S'LilyPad Arduino w/ ATmega328'
p816
sS'build'
p817
(dp818
S'core'
p819
S'arduino'
p820
sS'mcu'
p821
S'atmega328p'
p822
sS'cppoption1'
p823
S'-fno-use-cxa-atexit'
p824
sS'f_cpu'
p825
S'8000000L'
p826
sS'variant'
p827
S'standard'
p828
ssaa(lp829
S'lilypad'
p830
a(dp831
S'bootloader'
p832
(dp833
S'extended_fuses'
p834
S'0x00'
p835
sS'high_fuses'
p836
S'0xdd'
p837
sS'low_fuses'
p838
S'0xe2'
p839
sS'lock_bits'
p840
S'0x0F'
p841
sS'file'
p842
S'LilyPadBOOT_168.hex'
p843
sS'path'
p844
S'lilypad'
p845
sS'unlock_bits'
p846
S'0x3F'
p847
ssS'upload'
p848
(dp849
S'speed'
p850
S'19200'
p851
sS'maximum_size'
p852
S'14336'
p853
sS'protocol'
p854
S'arduino'
p855
ssS'name'
p856
S'LilyPad Arduino w/ ATmega168'
p857
sS'build'
p858
(dp859
S'core'
p860
S'arduino'
p861
sS'mcu'
p862
S'atmega168'
p863
sS'cppoption1'
p864
S'-fno-use-cxa-atexit'
p865
sS'f_cpu'
p866
S'8000000L'
p867
sS'variant'
p868
S'standard'
p869
ssaa(lp870
S'pro5v328'
p871
a(dp872
S'bootloader'
p873
(dp874
S'extended_fuses'
p875
S'0x05'
p876
sS'high_fuses'
p877
S'0xDA'
p878
sS'low_fuses'
p879
S'0xFF'
p880
sS'lock_bits'
p881
S'0x0F'
p882
sS'file'
p883
S'ATmegaBOOT_168_atmega328.hex'
p884
sS'path'
p885
S'atmega'
p886
sS'unlock_bits'
p887
S'0x3F'
p888
ssS'upload'
p889
(dp890
S'speed'
p891
S'57600'
p892
sS'maximum_size'
p893
S'30720'
p894
sS'protocol'
p895
S'arduino'
p896
ssS'name'
p897
S'Arduino Pro or Pro Mini (5V, 16 MHz) w/ ATmega328'
p898
sS'build'
p899
(dp900
S'core'
p901
S'arduino'
p902
sS'mcu'
p903
S'atmega328p'
p904
sS'cppoption1'
p905
S'-fno-use-cxa-atexit'
p906
sS'f_cpu'
p907
S'16000000L'
p908
sS'variant'
p909
S'standard'
p910
ssaa(lp911
S'pro5v'
p912
a(dp913
S'bootloader'
p914
(dp915
S'extended_fuses'
p916
S'0x00'
p917
sS'high_fuses'
p918
S'0xdd'
p919
sS'low_fuses'
p920
S'0xff'
p921
sS'lock_bits'
p922
S'0x0F'
p923
sS'file'
p924
S'ATmegaBOOT_168_diecimila.hex'
p925
sS'path'
p926
S'atmega'
p927
sS'unlock_bits'
p928
S'0x3F'
p929
ssS'upload'
p930
(dp931
S'speed'
p932
S'19200'
p933
sS'maximum_size'
p934
S'14336'
p935
sS'protocol'
p936
S'arduino'
p937
ssS'name'
p938
S'Arduino Pro or Pro Mini (5V, 16 MHz) w/ ATmega168'
p939
sS'build'
p940
(dp941
S'core'
p942
S'arduino'
p943
sS'mcu'
p944
S'atmega168'
p945
sS'cppoption1'
p946
S'-fno-use-cxa-atexit'
p947
sS'f_cpu'
p948
S'16000000L'
p949
sS'variant'
p950
S'standard'
p951
ssaa(lp952
S'pro328'
p953
a(dp954
S'bootloader'
p955
(dp956
S'extended_fuses'
p957
S'0x05'
p958
sS'high_fuses'
p959
S'0xDA'
p960
sS'low_fuses'
p961
S'0xFF'
p962
sS'lock_bits'
p963
S'0x0F'
p964
sS'file'
p965
S'ATmegaBOOT_168_atmega328_pro_8MHz.hex'
p966
sS'path'
p967
S'atmega'
p968
sS'unlock_bits'
p969
S'0x3F'
p970
ssS'upload'
p971
(dp972
S'speed'
p973
S'57600'
p974
sS'maximum_size'
p975
S'30720'
p976
sS'protocol'
p977
S'arduino'
p978
ssS'name'
p979
S'Arduino Pro or Pro Mini (3.3V, 8 MHz) w/ ATmega328'
p980
sS'build'
p981
(dp982
S'core'
p983
S'arduino'
p984
sS'mcu'
p985
S'atmega328p'
p986
sS'cppoption1'
p987
S'-fno-use-cxa-atexit'
p988
sS'f_cpu'
p989
S'8000000L'
p990
sS'variant'
p991
S'standard'
p992
ssaa(lp993
S'pro'
p994
a(dp995
S'bootloader'
p996
(dp997
S'extended_fuses'
p998
S'0x00'
p999
sS'high_fuses'
p1000
S'0xdd'
p1001
sS'low_fuses'
p1002
S'0xc6'
p1003
sS'lock_bits'
p1004
S'0x0F'
p1005
sS'file'
p1006
S'ATmegaBOOT_168_pro_8MHz.hex'
p1007
sS'path'
p1008
S'atmega'
p1009
sS'unlock_bits'
p1010
S'0x3F'
p1011
ssS'upload'
p1012
(dp1013
S'speed'
p1014
S'19200'
p1015
sS'maximum_size'
p1016
S'14336'
p1017
sS'protocol'
p1018
S'arduino'
p1019
ssS'name'
p1020
S'Arduino Pro or Pro Mini (3.3V, 8 MHz) w/ ATmega168'
p1021
sS'build'
p1022
(dp1023
S'core'
p1024
S'arduino'
p1025
sS'mcu'
p1026
S'atmega168'
p1027
sS'cppoption1'
p1028
S'-fno-use-cxa-atexit'
p1029
sS'f_cpu'
p1030
S'8000000L'
p1031
sS'variant'
p1032
S'standard'
p1033
ssaa(lp1034
S'atmega168'
p1035
a(dp1036
S'bootloader'
p1037
(dp1038
S'extended_fuses'
p1039
S'0x00'
p1040
sS'high_fuses'
p1041
S'0xdd'
p1042
sS'low_fuses'
p1043
S'0xff'
p1044
sS'lock_bits'
p1045
S'0x0F'
p1046
sS'file'
p1047
S'ATmegaBOOT_168_ng.hex'
p1048
sS'path'
p1049
S'atmega'
p1050
sS'unlock_bits'
p1051
S'0x3F'
p1052
ssS'upload'
p1053
(dp1054
S'speed'
p1055
S'19200'
p1056
sS'maximum_size'
p1057
S'14336'
p1058
sS'protocol'
p1059
S'arduino'
p1060
ssS'name'
p1061
S'Arduino NG or older w/ ATmega168'
p1062
sS'build'
p1063
(dp1064
S'core'
p1065
S'arduino'
p1066
sS'mcu'
p1067
S'atmega168'
p1068
sS'cppoption1'
p1069
S'-fno-use-cxa-atexit'
p1070
sS'f_cpu'
p1071
S'16000000L'
p1072
sS'variant'
p1073
S'standard'
p1074
ssaa(lp1075
S'atmega8'
p1076
a(dp1077
S'bootloader'
p1078
(dp1079
S'high_fuses'
p1080
S'0xca'
p1081
sS'low_fuses'
p1082
S'0xdf'
p1083
sS'lock_bits'
p1084
S'0x0F'
p1085
sS'file'
p1086
S'ATmegaBOOT.hex'
p1087
sS'path'
p1088
S'atmega8'
p1089
sS'unlock_bits'
p1090
S'0x3F'
p1091
ssS'upload'
p1092
(dp1093
S'speed'
p1094
S'57600'
p1095
sS'maximum_size'
p1096
S'7168'
p1097
sS'protocol'
p1098
S'arduino'
p1099
ssS'name'
p1100
S'Arduino ATmega8 8mhz 57600'
p1101
sS'build'
p1102
(dp1103
S'core'
p1104
S'arduino'
p1105
sS'mcu'
p1106
S'atmega8'
p1107
sS'cppoption1'
p1108
g15
sS'f_cpu'
p1109
S'8000000L'
p1110
sS'variant'
p1111
S'standard'
p1112
ssaa(lp1113
S'robotControl'
p1114
a(dp1115
S'bootloader'
p1116
(dp1117
S'extended_fuses'
p1118
S'0xcb'
p1119
sS'high_fuses'
p1120
S'0xd8'
p1121
sS'low_fuses'
p1122
S'0xff'
p1123
sS'lock_bits'
p1124
S'0x2F'
p1125
sS'file'
p1126
S'Caterina-Robot-Control.hex'
p1127
sS'path'
p1128
S'caterina-Arduino_Robot'
p1129
sS'unlock_bits'
p1130
S'0x3F'
p1131
ssS'upload'
p1132
(dp1133
S'speed'
p1134
S'57600'
p1135
sS'maximum_size'
p1136
S'28672'
p1137
sS'protocol'
p1138
S'avr109'
p1139
sS'disable_flushing'
p1140
S'true'
p1141
ssS'name'
p1142
S'Arduino Robot Control'
p1143
sS'build'
p1144
(dp1145
S'core'
p1146
S'robot'
p1147
sS'f_cpu'
p1148
S'16000000L'
p1149
sS'vid'
p1150
S'0x2341'
p1151
sS'pid'
p1152
S'0x8038'
p1153
sS'cppoption1'
p1154
S'-fno-use-cxa-atexit'
p1155
sS'variant'
p1156
S'robot_control'
p1157
sS'mcu'
p1158
S'atmega32u4'
p1159
ssaa(lp1160
S'robotMotor'
p1161
a(dp1162
S'bootloader'
p1163
(dp1164
S'extended_fuses'
p1165
S'0xcb'
p1166
sS'high_fuses'
p1167
S'0xd8'
p1168
sS'low_fuses'
p1169
S'0xff'
p1170
sS'lock_bits'
p1171
S'0x2F'
p1172
sS'file'
p1173
S'Caterina-Robot-Motor.hex'
p1174
sS'path'
p1175
S'caterina-Arduino_Robot'
p1176
sS'unlock_bits'
p1177
S'0x3F'
p1178
ssS'upload'
p1179
(dp1180
S'speed'
p1181
S'57600'
p1182
sS'maximum_size'
p1183
S'28672'
p1184
sS'protocol'
p1185
S'avr109'
p1186
sS'disable_flushing'
p1187
S'true'
p1188
ssS'name'
p1189
S'Arduino Robot Motor'
p1190
sS'build'
p1191
(dp1192
S'core'
p1193
S'robot'
p1194
sS'f_cpu'
p1195
S'16000000L'
p1196
sS'vid'
p1197
S'0x2341'
p1198
sS'pid'
p1199
S'0x8039'
p1200
sS'cppoption1'
p1201
S'-fno-use-cxa-atexit'
p1202
sS'variant'
p1203
S'robot_motor'
p1204
sS'mcu'
p1205
S'atmega32u4'
p1206
ssaa(lp1207
S'atmega8noxtal'
p1208
a(dp1209
S'bootloader'
p1210
(dp1211
S'high_fuses'
p1212
S'0xc4'
p1213
sS'low_fuses'
p1214
S'0xe4'
p1215
sS'lock_bits'
p1216
S'0x0F'
p1217
sS'file'
p1218
S'ATmegaBOOT.hex'
p1219
sS'path'
p1220
S'atmega8_noxtal'
p1221
sS'unlock_bits'
p1222
S'0x3F'
p1223
ssS'upload'
p1224
(dp1225
S'speed'
p1226
S'38400'
p1227
sS'maximum_size'
p1228
S'7168'
p1229
sS'protocol'
p1230
S'stk500'
p1231
ssS'name'
p1232
S'ATmega8-mano @8MHz'
p1233
sS'build'
p1234
(dp1235
S'core'
p1236
S'arduino'
p1237
sS'mcu'
p1238
S'atmega8'
p1239
sS'f_cpu'
p1240
S'8000000L'
p1241
sS'variant'
p1242
S'arduino:standard'
p1243
ssaa(lp1244
S'atmega8_osc8'
p1245
a(dp1246
S'bootloader'
p1247
(dp1248
S'high_fuses'
p1249
S'0xd4'
p1250
sS'low_fuses'
p1251
S'0xe4'
p1252
sS'lock_bits'
p1253
S'0x0F'
p1254
sS'file'
p1255
S'optiboot_atmega8_osc8.hex'
p1256
sS'path'
p1257
S'optiboot'
p1258
sS'unlock_bits'
p1259
S'0x3F'
p1260
ssS'upload'
p1261
(dp1262
S'speed'
p1263
S'9600'
p1264
sS'maximum_size'
p1265
S'7680'
p1266
sS'protocol'
p1267
S'arduino'
p1268
ssS'name'
p1269
S'[Optiboot] ATmega8 osc 8MHz'
p1270
sS'build'
p1271
(dp1272
S'core'
p1273
S'arduino:arduino'
p1274
sS'mcu'
p1275
S'atmega8'
p1276
sS'f_cpu'
p1277
S'8000000L'
p1278
sS'variant'
p1279
S'arduino:standard'
p1280
ssaatp1281
Rp1282
(dp1283
S'default'
p1284
S'uno'
p1285
sbtp1286
a(S'used_libs'
p1287
(lp1288
tp1289
a(S'make'
p1290
S'/usr/bin/make'
p1291
tp1292
a(S'arduino_libraries_dir'
p1293
S'/usr/share/arduino/libraries'
p1294
tp1295
a(S'cc'
p1296
S'/usr/bin/avr-gcc'
p1297
tp1298
a(S'cflags'
p1299
g2
(g3
g4
(lp1300
tp1301
Rp1302
tp1303
a(S'cxxflags'
p1304
g2
(g3
g4
(lp1305
S'-fno-exceptions'
p1306
atp1307
Rp1308
tp1309
a(S'arduino_variants_dir'
p1310
S'/usr/share/arduino/hardware/arduino/variants'
p1311
tp1312
a(S'stty'
p1313
S'/usr/bin/stty'
p1314
tp1315
a(S'version.txt'
p1316
S'/usr/share/arduino/lib/version.txt'
p1317
tp1318
a(S'arduino_core_dir'
p1319
S'/usr/share/arduino/hardware/arduino/cores/arduino'
p1320
tp1321
a(S'boards.txt'
p1322
S'/usr/share/arduino/hardware/arduino/boards.txt'
p1323
tp1324
a(S'avrdude.conf'
p1325
S'/etc/avrdude.conf'
p1326
tp1327
a(S'deps'
p1328
g2
(g3
g4
(lp1329
S'.build/atmega8/src/dependencies.d'
p1330
atp1331
Rp1332
tp1333
a.